target datalayout = "e-m:e-p270:32:32-p271:32:32-p272:64:64-i64:64-i128:128-f80:128-n8:16:32:64-S128"
target triple = "x86_64-pc-linux-gnu"

%struct.PJconsts = type { ptr, ptr, ptr, ptr, ptr, ptr, ptr, ptr, ptr, ptr, ptr, ptr, i32, ptr, ptr, ptr, ptr, ptr, ptr, ptr, ptr, double, double, double, double, double, double, double, double, double, double, double, double, double, double, double, double, double, double, double, double, double, double, i32, i32, i32, i32, i32, i32, i32, i32, i32, i32, i32, ptr, ptr, ptr, ptr, ptr, ptr, double, double, double, double, double, double, double, double, double, double, double, i32, [7 x double], i32, ptr, ptr, double, double, i32, [4 x i8], %"class.std::shared_ptr", i8, double, i8, %"class.std::__cxx11::basic_string", %"class.std::__cxx11::basic_string", %"class.std::__cxx11::basic_string", i8, %"class.std::vector", i32, %"class.std::vector.3", i32, i8, i8, i8, ptr }
%"class.std::shared_ptr" = type { %"class.std::__shared_ptr" }
%"class.std::__shared_ptr" = type { ptr, %"class.std::__shared_count" }
%"class.std::__shared_count" = type { ptr }
%"class.std::__cxx11::basic_string" = type { %"struct.std::__cxx11::basic_string<char>::_Alloc_hider", i64, %union.anon }
%"struct.std::__cxx11::basic_string<char>::_Alloc_hider" = type { ptr }
%union.anon = type { i64, [8 x i8] }
%"class.std::vector" = type { %"struct.std::_Vector_base" }
%"struct.std::_Vector_base" = type { %"struct.std::_Vector_base<osgeo::proj::operation::GridDescription, std::allocator<osgeo::proj::operation::GridDescription>>::_Vector_impl" }
%"struct.std::_Vector_base<osgeo::proj::operation::GridDescription, std::allocator<osgeo::proj::operation::GridDescription>>::_Vector_impl" = type { %"struct.std::_Vector_base<osgeo::proj::operation::GridDescription, std::allocator<osgeo::proj::operation::GridDescription>>::_Vector_impl_data" }
%"struct.std::_Vector_base<osgeo::proj::operation::GridDescription, std::allocator<osgeo::proj::operation::GridDescription>>::_Vector_impl_data" = type { ptr, ptr, ptr }
%"class.std::vector.3" = type { %"struct.std::_Vector_base.4" }
%"struct.std::_Vector_base.4" = type { %"struct.std::_Vector_base<PJCoordOperation, std::allocator<PJCoordOperation>>::_Vector_impl" }
%"struct.std::_Vector_base<PJCoordOperation, std::allocator<PJCoordOperation>>::_Vector_impl" = type { %"struct.std::_Vector_base<PJCoordOperation, std::allocator<PJCoordOperation>>::_Vector_impl_data" }
%"struct.std::_Vector_base<PJCoordOperation, std::allocator<PJCoordOperation>>::_Vector_impl_data" = type { ptr, ptr, ptr }
%"struct.(anonymous namespace)::pj_opaque_molodensky" = type { double, double, double, double, double, i32 }
%struct.PJ_LPZ = type { double, double, double }

; Function Attrs: mustprogress nounwind uwtable
define internal noundef double @_ZL2RNddd(double noundef %0, double noundef %1, double noundef %2) #6 {
  %4 = alloca double, align 8
  %5 = alloca double, align 8
  %6 = alloca double, align 8
  %7 = alloca double, align 8
  %8 = alloca double, align 8
  %9 = alloca i32, align 4
  store double %0, ptr %5, align 8, !tbaa !63
  store double %1, ptr %6, align 8, !tbaa !63
  store double %2, ptr %7, align 8, !tbaa !63
  call void @llvm.lifetime.start.p0(i64 8, ptr %8) #9
  %10 = load double, ptr %7, align 8, !tbaa !63
  %11 = call double @sin(double noundef %10) #9, !tbaa !69
  store double %11, ptr %8, align 8, !tbaa !63
  %12 = load double, ptr %6, align 8, !tbaa !63
  %13 = fcmp oeq double %12, 0.000000e+00
  br i1 %13, label %14, label %16

14:                                               ; preds = %3
  %15 = load double, ptr %5, align 8, !tbaa !63
  store double %15, ptr %4, align 8
  store i32 1, ptr %9, align 4
  br label %26

16:                                               ; preds = %3
  %17 = load double, ptr %5, align 8, !tbaa !63
  %18 = load double, ptr %6, align 8, !tbaa !63
  %19 = load double, ptr %8, align 8, !tbaa !63
  %20 = fmul double %18, %19
  %21 = load double, ptr %8, align 8, !tbaa !63
  %22 = fneg double %20
  %23 = call double @llvm.fmuladd.f64(double %22, double %21, double 1.000000e+00)
  %24 = call double @sqrt(double noundef %23) #9, !tbaa !69
  %25 = fdiv double %17, %24
  store double %25, ptr %4, align 8
  store i32 1, ptr %9, align 4
  br label %26

26:                                               ; preds = %16, %14
  call void @llvm.lifetime.end.p0(i64 8, ptr %8) #9
  %27 = load double, ptr %4, align 8
  ret double %27
}

; Function Attrs: mustprogress nounwind uwtable
define internal noundef double @_ZL2RMddd(double noundef %0, double noundef %1, double noundef %2) #6 {
  %4 = alloca double, align 8
  %5 = alloca double, align 8
  %6 = alloca double, align 8
  %7 = alloca double, align 8
  %8 = alloca double, align 8
  %9 = alloca i32, align 4
  store double %0, ptr %5, align 8, !tbaa !63
  store double %1, ptr %6, align 8, !tbaa !63
  store double %2, ptr %7, align 8, !tbaa !63
  call void @llvm.lifetime.start.p0(i64 8, ptr %8) #9
  %10 = load double, ptr %7, align 8, !tbaa !63
  %11 = call double @sin(double noundef %10) #9, !tbaa !69
  store double %11, ptr %8, align 8, !tbaa !63
  %12 = load double, ptr %6, align 8, !tbaa !63
  %13 = fcmp oeq double %12, 0.000000e+00
  br i1 %13, label %14, label %16

14:                                               ; preds = %3
  %15 = load double, ptr %5, align 8, !tbaa !63
  store double %15, ptr %4, align 8
  store i32 1, ptr %9, align 4
  br label %47

16:                                               ; preds = %3
  %17 = load double, ptr %7, align 8, !tbaa !63
  %18 = fcmp oeq double %17, 0.000000e+00
  br i1 %18, label %19, label %24

19:                                               ; preds = %16
  %20 = load double, ptr %5, align 8, !tbaa !63
  %21 = load double, ptr %6, align 8, !tbaa !63
  %22 = fsub double 1.000000e+00, %21
  %23 = fmul double %20, %22
  store double %23, ptr %4, align 8
  store i32 1, ptr %9, align 4
  br label %47

24:                                               ; preds = %16
  %25 = load double, ptr %7, align 8, !tbaa !63
  %26 = call double @llvm.fabs.f64(double %25)
  %27 = fcmp oeq double %26, 0x3FF921FB54442D18
  br i1 %27, label %28, label %34

28:                                               ; preds = %24
  %29 = load double, ptr %5, align 8, !tbaa !63
  %30 = load double, ptr %6, align 8, !tbaa !63
  %31 = fsub double 1.000000e+00, %30
  %32 = call double @sqrt(double noundef %31) #9, !tbaa !69
  %33 = fdiv double %29, %32
  store double %33, ptr %4, align 8
  store i32 1, ptr %9, align 4
  br label %47

34:                                               ; preds = %24
  %35 = load double, ptr %5, align 8, !tbaa !63
  %36 = load double, ptr %6, align 8, !tbaa !63
  %37 = fsub double 1.000000e+00, %36
  %38 = fmul double %35, %37
  %39 = load double, ptr %6, align 8, !tbaa !63
  %40 = load double, ptr %8, align 8, !tbaa !63
  %41 = fmul double %39, %40
  %42 = load double, ptr %8, align 8, !tbaa !63
  %43 = fneg double %41
  %44 = call double @llvm.fmuladd.f64(double %43, double %42, double 1.000000e+00)
  %45 = call double @pow(double noundef %44, double noundef 1.500000e+00) #9, !tbaa !69
  %46 = fdiv double %38, %45
  store double %46, ptr %4, align 8
  store i32 1, ptr %9, align 4
  br label %47

47:                                               ; preds = %34, %28, %19, %14
  call void @llvm.lifetime.end.p0(i64 8, ptr %8) #9
  %48 = load double, ptr %4, align 8
  ret double %48
}

; Function Attrs: mustprogress uwtable
define internal void @_ZL20calc_abridged_params6PJ_LPZP8PJconsts(ptr dead_on_unwind noalias writable sret(%struct.PJ_LPZ) align 8 %0, ptr noundef byval(%struct.PJ_LPZ) align 8 %1, ptr noundef %2) #0 {
  %4 = alloca ptr, align 8
  %5 = alloca ptr, align 8
  %6 = alloca double, align 8
  %7 = alloca double, align 8
  %8 = alloca double, align 8
  %9 = alloca double, align 8
  %10 = alloca double, align 8
  %11 = alloca double, align 8
  %12 = alloca double, align 8
  %13 = alloca double, align 8
  %14 = alloca double, align 8
  %15 = alloca double, align 8
  %16 = alloca double, align 8
  %17 = alloca double, align 8
  %18 = alloca double, align 8
  %19 = alloca double, align 8
  %20 = alloca i32, align 4
  store ptr %2, ptr %4, align 8, !tbaa !3
  call void @llvm.lifetime.start.p0(i64 8, ptr %5) #9
  %21 = load ptr, ptr %4, align 8, !tbaa !3
  %22 = getelementptr inbounds nuw %struct.PJconsts, ptr %21, i32 0, i32 11
  %23 = load ptr, ptr %22, align 8, !tbaa !43
  store ptr %23, ptr %5, align 8, !tbaa !41
  call void @llvm.lifetime.start.p0(i64 8, ptr %6) #9
  call void @llvm.lifetime.start.p0(i64 8, ptr %7) #9
  call void @llvm.lifetime.start.p0(i64 8, ptr %8) #9
  call void @llvm.lifetime.start.p0(i64 8, ptr %9) #9
  %24 = getelementptr inbounds nuw %struct.PJ_LPZ, ptr %1, i32 0, i32 0
  %25 = load double, ptr %24, align 8, !tbaa !64
  %26 = call double @sin(double noundef %25) #9, !tbaa !69
  store double %26, ptr %9, align 8, !tbaa !63
  call void @llvm.lifetime.start.p0(i64 8, ptr %10) #9
  %27 = getelementptr inbounds nuw %struct.PJ_LPZ, ptr %1, i32 0, i32 0
  %28 = load double, ptr %27, align 8, !tbaa !64
  %29 = call double @cos(double noundef %28) #9, !tbaa !69
  store double %29, ptr %10, align 8, !tbaa !63
  call void @llvm.lifetime.start.p0(i64 8, ptr %11) #9
  %30 = getelementptr inbounds nuw %struct.PJ_LPZ, ptr %1, i32 0, i32 1
  %31 = load double, ptr %30, align 8, !tbaa !66
  %32 = call double @sin(double noundef %31) #9, !tbaa !69
  store double %32, ptr %11, align 8, !tbaa !63
  call void @llvm.lifetime.start.p0(i64 8, ptr %12) #9
  %33 = getelementptr inbounds nuw %struct.PJ_LPZ, ptr %1, i32 0, i32 1
  %34 = load double, ptr %33, align 8, !tbaa !66
  %35 = call double @cos(double noundef %34) #9, !tbaa !69
  store double %35, ptr %12, align 8, !tbaa !63
  call void @llvm.lifetime.start.p0(i64 8, ptr %13) #9
  %36 = load ptr, ptr %5, align 8, !tbaa !41
  %37 = getelementptr inbounds nuw %"struct.(anonymous namespace)::pj_opaque_molodensky", ptr %36, i32 0, i32 0
  %38 = load double, ptr %37, align 8, !tbaa !53
  store double %38, ptr %13, align 8, !tbaa !63
  call void @llvm.lifetime.start.p0(i64 8, ptr %14) #9
  %39 = load ptr, ptr %5, align 8, !tbaa !41
  %40 = getelementptr inbounds nuw %"struct.(anonymous namespace)::pj_opaque_molodensky", ptr %39, i32 0, i32 1
  %41 = load double, ptr %40, align 8, !tbaa !55
  store double %41, ptr %14, align 8, !tbaa !63
  call void @llvm.lifetime.start.p0(i64 8, ptr %15) #9
  %42 = load ptr, ptr %5, align 8, !tbaa !41
  %43 = getelementptr inbounds nuw %"struct.(anonymous namespace)::pj_opaque_molodensky", ptr %42, i32 0, i32 2
  %44 = load double, ptr %43, align 8, !tbaa !56
  store double %44, ptr %15, align 8, !tbaa !63
  call void @llvm.lifetime.start.p0(i64 8, ptr %16) #9
  %45 = load ptr, ptr %5, align 8, !tbaa !41
  %46 = getelementptr inbounds nuw %"struct.(anonymous namespace)::pj_opaque_molodensky", ptr %45, i32 0, i32 3
  %47 = load double, ptr %46, align 8, !tbaa !57
  store double %47, ptr %16, align 8, !tbaa !63
  call void @llvm.lifetime.start.p0(i64 8, ptr %17) #9
  %48 = load ptr, ptr %5, align 8, !tbaa !41
  %49 = getelementptr inbounds nuw %"struct.(anonymous namespace)::pj_opaque_molodensky", ptr %48, i32 0, i32 4
  %50 = load double, ptr %49, align 8, !tbaa !58
  store double %50, ptr %17, align 8, !tbaa !63
  call void @llvm.lifetime.start.p0(i64 8, ptr %18) #9
  %51 = load ptr, ptr %4, align 8, !tbaa !3
  %52 = getelementptr inbounds nuw %struct.PJconsts, ptr %51, i32 0, i32 21
  %53 = load double, ptr %52, align 8, !tbaa !70
  %54 = load double, ptr %17, align 8, !tbaa !63
  %55 = load ptr, ptr %4, align 8, !tbaa !3
  %56 = getelementptr inbounds nuw %struct.PJconsts, ptr %55, i32 0, i32 34
  %57 = load double, ptr %56, align 8, !tbaa !71
  %58 = load double, ptr %16, align 8, !tbaa !63
  %59 = fmul double %57, %58
  %60 = call double @llvm.fmuladd.f64(double %53, double %54, double %59)
  store double %60, ptr %18, align 8, !tbaa !63
  %61 = load double, ptr %13, align 8, !tbaa !63
  %62 = fneg double %61
  %63 = load double, ptr %11, align 8, !tbaa !63
  %64 = fmul double %62, %63
  %65 = load double, ptr %10, align 8, !tbaa !63
  %66 = load double, ptr %14, align 8, !tbaa !63
  %67 = load double, ptr %11, align 8, !tbaa !63
  %68 = fmul double %66, %67
  %69 = load double, ptr %9, align 8, !tbaa !63
  %70 = fmul double %68, %69
  %71 = fneg double %70
  %72 = call double @llvm.fmuladd.f64(double %64, double %65, double %71)
  %73 = load double, ptr %15, align 8, !tbaa !63
  %74 = load double, ptr %12, align 8, !tbaa !63
  %75 = call double @llvm.fmuladd.f64(double %73, double %74, double %72)
  %76 = load double, ptr %18, align 8, !tbaa !63
  %77 = getelementptr inbounds nuw %struct.PJ_LPZ, ptr %1, i32 0, i32 1
  %78 = load double, ptr %77, align 8, !tbaa !66
  %79 = fmul double 2.000000e+00, %78
  %80 = call double @sin(double noundef %79) #9, !tbaa !69
  %81 = call double @llvm.fmuladd.f64(double %76, double %80, double %75)
  store double %81, ptr %6, align 8, !tbaa !63
  %82 = load ptr, ptr %4, align 8, !tbaa !3
  %83 = getelementptr inbounds nuw %struct.PJconsts, ptr %82, i32 0, i32 21
  %84 = load double, ptr %83, align 8, !tbaa !70
  %85 = load ptr, ptr %4, align 8, !tbaa !3
  %86 = getelementptr inbounds nuw %struct.PJconsts, ptr %85, i32 0, i32 27
  %87 = load double, ptr %86, align 8, !tbaa !72
  %88 = getelementptr inbounds nuw %struct.PJ_LPZ, ptr %1, i32 0, i32 1
  %89 = load double, ptr %88, align 8, !tbaa !66
  %90 = call noundef double @_ZL2RMddd(double noundef %84, double noundef %87, double noundef %89)
  %91 = load double, ptr %6, align 8, !tbaa !63
  %92 = fdiv double %91, %90
  store double %92, ptr %6, align 8, !tbaa !63
  %93 = load double, ptr %13, align 8, !tbaa !63
  %94 = fneg double %93
  %95 = load double, ptr %9, align 8, !tbaa !63
  %96 = load double, ptr %14, align 8, !tbaa !63
  %97 = load double, ptr %10, align 8, !tbaa !63
  %98 = fmul double %96, %97
  %99 = call double @llvm.fmuladd.f64(double %94, double %95, double %98)
  store double %99, ptr %7, align 8, !tbaa !63
  call void @llvm.lifetime.start.p0(i64 8, ptr %19) #9
  %100 = load ptr, ptr %4, align 8, !tbaa !3
  %101 = getelementptr inbounds nuw %struct.PJconsts, ptr %100, i32 0, i32 21
  %102 = load double, ptr %101, align 8, !tbaa !70
  %103 = load ptr, ptr %4, align 8, !tbaa !3
  %104 = getelementptr inbounds nuw %struct.PJconsts, ptr %103, i32 0, i32 27
  %105 = load double, ptr %104, align 8, !tbaa !72
  %106 = getelementptr inbounds nuw %struct.PJ_LPZ, ptr %1, i32 0, i32 1
  %107 = load double, ptr %106, align 8, !tbaa !66
  %108 = call noundef double @_ZL2RNddd(double noundef %102, double noundef %105, double noundef %107)
  %109 = load double, ptr %12, align 8, !tbaa !63
  %110 = fmul double %108, %109
  store double %110, ptr %19, align 8, !tbaa !63
  %111 = load double, ptr %19, align 8, !tbaa !63
  %112 = fcmp oeq double %111, 0.000000e+00
  br i1 %112, label %113, label %115

113:                                              ; preds = %3
  %114 = getelementptr inbounds nuw %struct.PJ_LPZ, ptr %1, i32 0, i32 0
  store double 0x7FF0000000000000, ptr %114, align 8, !tbaa !64
  call void @llvm.memcpy.p0.p0.i64(ptr align 8 %0, ptr align 8 %1, i64 24, i1 false), !tbaa.struct !62
  store i32 1, ptr %20, align 4
  br label %145

115:                                              ; preds = %3
  %116 = load double, ptr %19, align 8, !tbaa !63
  %117 = load double, ptr %7, align 8, !tbaa !63
  %118 = fdiv double %117, %116
  store double %118, ptr %7, align 8, !tbaa !63
  %119 = load double, ptr %13, align 8, !tbaa !63
  %120 = load double, ptr %12, align 8, !tbaa !63
  %121 = fmul double %119, %120
  %122 = load double, ptr %10, align 8, !tbaa !63
  %123 = load double, ptr %14, align 8, !tbaa !63
  %124 = load double, ptr %12, align 8, !tbaa !63
  %125 = fmul double %123, %124
  %126 = load double, ptr %9, align 8, !tbaa !63
  %127 = fmul double %125, %126
  %128 = call double @llvm.fmuladd.f64(double %121, double %122, double %127)
  %129 = load double, ptr %15, align 8, !tbaa !63
  %130 = load double, ptr %11, align 8, !tbaa !63
  %131 = call double @llvm.fmuladd.f64(double %129, double %130, double %128)
  %132 = load double, ptr %16, align 8, !tbaa !63
  %133 = fsub double %131, %132
  %134 = load double, ptr %18, align 8, !tbaa !63
  %135 = load double, ptr %11, align 8, !tbaa !63
  %136 = fmul double %134, %135
  %137 = load double, ptr %11, align 8, !tbaa !63
  %138 = call double @llvm.fmuladd.f64(double %136, double %137, double %133)
  store double %138, ptr %8, align 8, !tbaa !63
  %139 = load double, ptr %6, align 8, !tbaa !63
  %140 = getelementptr inbounds nuw %struct.PJ_LPZ, ptr %1, i32 0, i32 1
  store double %139, ptr %140, align 8, !tbaa !66
  %141 = load double, ptr %7, align 8, !tbaa !63
  %142 = getelementptr inbounds nuw %struct.PJ_LPZ, ptr %1, i32 0, i32 0
  store double %141, ptr %142, align 8, !tbaa !64
  %143 = load double, ptr %8, align 8, !tbaa !63
  %144 = getelementptr inbounds nuw %struct.PJ_LPZ, ptr %1, i32 0, i32 2
  store double %143, ptr %144, align 8, !tbaa !67
  call void @llvm.memcpy.p0.p0.i64(ptr align 8 %0, ptr align 8 %1, i64 24, i1 false), !tbaa.struct !62
  store i32 1, ptr %20, align 4
  br label %145

145:                                              ; preds = %115, %113
  call void @llvm.lifetime.end.p0(i64 8, ptr %19) #9
  call void @llvm.lifetime.end.p0(i64 8, ptr %18) #9
  call void @llvm.lifetime.end.p0(i64 8, ptr %17) #9
  call void @llvm.lifetime.end.p0(i64 8, ptr %16) #9
  call void @llvm.lifetime.end.p0(i64 8, ptr %15) #9
  call void @llvm.lifetime.end.p0(i64 8, ptr %14) #9
  call void @llvm.lifetime.end.p0(i64 8, ptr %13) #9
  call void @llvm.lifetime.end.p0(i64 8, ptr %12) #9
  call void @llvm.lifetime.end.p0(i64 8, ptr %11) #9
  call void @llvm.lifetime.end.p0(i64 8, ptr %10) #9
  call void @llvm.lifetime.end.p0(i64 8, ptr %9) #9
  call void @llvm.lifetime.end.p0(i64 8, ptr %8) #9
  call void @llvm.lifetime.end.p0(i64 8, ptr %7) #9
  call void @llvm.lifetime.end.p0(i64 8, ptr %6) #9
  call void @llvm.lifetime.end.p0(i64 8, ptr %5) #9
  ret void
}