; Function Attrs: mustprogress nofree nounwind willreturn memory(readwrite, inaccessiblemem: write) uwtable
define internal fastcc void @_ZL20calc_abridged_params6PJ_LPZP8PJconsts(ptr dead_on_unwind noalias nonnull writable writeonly align 8 captures(none) initializes((0, 24)) %0, ptr noundef byval(%struct.PJ_LPZ) align 8 captures(none) %1, ptr noundef readonly captures(none) %2) unnamed_addr #5 {
  %4 = getelementptr inbounds nuw i8, ptr %2, i64 88
  %5 = load ptr, ptr %4, align 8, !tbaa !40
  %6 = load double, ptr %1, align 8, !tbaa !60
  %7 = tail call double @sin(double noundef %6) #9, !tbaa !74
  %8 = tail call double @cos(double noundef %6) #9, !tbaa !74
  %9 = getelementptr inbounds nuw i8, ptr %1, i64 8
  %10 = load double, ptr %9, align 8, !tbaa !62
  %11 = tail call double @sin(double noundef %10) #9, !tbaa !74
  %12 = tail call double @cos(double noundef %10) #9, !tbaa !74
  %13 = load double, ptr %5, align 8, !tbaa !49
  %14 = getelementptr inbounds nuw i8, ptr %5, i64 8
  %15 = load double, ptr %14, align 8, !tbaa !51
  %16 = getelementptr inbounds nuw i8, ptr %5, i64 16
  %17 = load double, ptr %16, align 8, !tbaa !52
  %18 = getelementptr inbounds nuw i8, ptr %5, i64 24
  %19 = load double, ptr %18, align 8, !tbaa !53
  %20 = getelementptr inbounds nuw i8, ptr %5, i64 32
  %21 = load double, ptr %20, align 8, !tbaa !54
  %22 = getelementptr inbounds nuw i8, ptr %2, i64 168
  %23 = load double, ptr %22, align 8, !tbaa !75
  %24 = getelementptr inbounds nuw i8, ptr %2, i64 272
  %25 = load double, ptr %24, align 8, !tbaa !76
  %26 = fmul double %10, 2.000000e+00
  %27 = tail call double @sin(double noundef %26) #9, !tbaa !74
  %28 = getelementptr inbounds nuw i8, ptr %2, i64 216
  %29 = load double, ptr %28, align 8, !tbaa !77
  %30 = tail call double @sin(double noundef %10) #9, !tbaa !74
  %31 = fcmp oeq double %29, 0.000000e+00
  br i1 %31, label %_ZL2RMddd.exit, label %32

32:                                               ; preds = %3
  %33 = fcmp oeq double %10, 0.000000e+00
  br i1 %33, label %34, label %37

34:                                               ; preds = %32
  %35 = fsub double 1.000000e+00, %29
  %36 = fmul double %23, %35
  br label %54

37:                                               ; preds = %32
  %38 = tail call double @llvm.fabs.f64(double %10)
  %39 = fcmp oeq double %38, 0x3FF921FB54442D18
  %40 = fsub double 1.000000e+00, %29
  br i1 %39, label %41, label %44

41:                                               ; preds = %37
  %42 = tail call double @sqrt(double noundef %40) #9, !tbaa !74
  %43 = fdiv double %23, %42
  br label %54

44:                                               ; preds = %37
  %45 = fmul double %23, %40
  %46 = fneg double %30
  %47 = fmul double %29, %46
  %48 = tail call double @llvm.fmuladd.f64(double %47, double %30, double 1.000000e+00)
  %49 = tail call double @pow(double noundef %48, double noundef 1.500000e+00) #9, !tbaa !74
  %50 = fdiv double %45, %49
  br label %54

_ZL2RMddd.exit:                                   ; preds = %3
  %51 = tail call double @llvm.fabs.f64(double %10)
  %52 = fcmp oeq double %51, 0x7FF0000000000000
  br i1 %52, label %cdce.call, label %_ZL2RNddd.exit, !prof !78

cdce.call:                                        ; preds = %_ZL2RMddd.exit
  %53 = tail call double @sin(double noundef %10) #9, !tbaa !74
  br label %_ZL2RNddd.exit

54:                                               ; preds = %34, %41, %44
  %.0.i.ph = phi double [ %50, %44 ], [ %43, %41 ], [ %36, %34 ]
  %55 = tail call double @sin(double noundef %10) #9, !tbaa !74
  %56 = fneg double %55
  %57 = fmul double %29, %56
  %58 = tail call double @llvm.fmuladd.f64(double %57, double %55, double 1.000000e+00)
  %59 = tail call double @sqrt(double noundef %58) #9, !tbaa !74
  %60 = fdiv double %23, %59
  br label %_ZL2RNddd.exit

_ZL2RNddd.exit:                                   ; preds = %cdce.call, %_ZL2RMddd.exit, %54
  %.0.i50 = phi double [ %.0.i.ph, %54 ], [ %23, %_ZL2RMddd.exit ], [ %23, %cdce.call ]
  %.0.i47 = phi double [ %60, %54 ], [ %23, %_ZL2RMddd.exit ], [ %23, %cdce.call ]
  %61 = fmul double %12, %.0.i47
  %62 = fcmp oeq double %61, 0.000000e+00
  br i1 %62, label %63, label %64

63:                                               ; preds = %_ZL2RNddd.exit
  store double 0x7FF0000000000000, ptr %1, align 8, !tbaa !60
  br label %88

64:                                               ; preds = %_ZL2RNddd.exit
  %65 = fneg double %13
  %66 = fmul double %8, %15
  %67 = tail call double @llvm.fmuladd.f64(double %65, double %7, double %66)
  %68 = fmul double %19, %25
  %69 = tail call double @llvm.fmuladd.f64(double %23, double %21, double %68)
  %70 = fmul double %11, %65
  %71 = fmul double %11, %15
  %72 = fneg double %7
  %73 = fmul double %71, %72
  %74 = tail call double @llvm.fmuladd.f64(double %70, double %8, double %73)
  %75 = tail call double @llvm.fmuladd.f64(double %17, double %12, double %74)
  %76 = tail call double @llvm.fmuladd.f64(double %69, double %27, double %75)
  %77 = fdiv double %76, %.0.i50
  %78 = fdiv double %67, %61
  %79 = fmul double %12, %13
  %80 = fmul double %12, %15
  %81 = fmul double %7, %80
  %82 = tail call double @llvm.fmuladd.f64(double %79, double %8, double %81)
  %83 = tail call double @llvm.fmuladd.f64(double %17, double %11, double %82)
  %84 = fsub double %83, %19
  %85 = fmul double %11, %69
  %86 = tail call double @llvm.fmuladd.f64(double %85, double %11, double %84)
  store double %77, ptr %9, align 8, !tbaa !62
  store double %78, ptr %1, align 8, !tbaa !60
  %87 = getelementptr inbounds nuw i8, ptr %1, i64 16
  store double %86, ptr %87, align 8, !tbaa !63
  br label %88

88:                                               ; preds = %64, %63
  call void @llvm.memcpy.p0.p0.i64(ptr noundef nonnull align 8 dereferenceable(24) %0, ptr noundef nonnull align 8 dereferenceable(24) %1, i64 24, i1 false)
  ret void
}